; Function Attrs: mustprogress uwtable
define dso_local noundef zeroext i1 @_ZN4base9ListValue3SetEmPNS_5ValueE(ptr nocapture noundef nonnull align 8 dereferenceable(40) %this, i64 noundef %index, ptr noundef %in_value) local_unnamed_addr #3 align 2 personality ptr @__gxx_personality_v0 {
entry:
  %agg.tmp = alloca %"class.std::unique_ptr", align 8
  store ptr %in_value, ptr %agg.tmp, align 8, !alias.scope !59
  %call = invoke noundef zeroext i1 @_ZN4base9ListValue3SetEmSt10unique_ptrINS_5ValueESt14default_deleteIS2_EE(ptr noundef nonnull align 8 dereferenceable(40) %this, i64 noundef %index, ptr noundef nonnull %agg.tmp)
          to label %invoke.cont unwind label %lpad

invoke.cont:                                      ; preds = %entry
  %0 = load ptr, ptr %agg.tmp, align 8
  %cmp.not.i = icmp eq ptr %0, null
  br i1 %cmp.not.i, label %_ZNSt10unique_ptrIN4base5ValueESt14default_deleteIS1_EED2Ev.exit, label %_ZNKSt14default_deleteIN4base5ValueEEclEPS1_.exit.i

_ZNKSt14default_deleteIN4base5ValueEEclEPS1_.exit.i: ; preds = %invoke.cont
  %vtable.i.i = load ptr, ptr %0, align 8
  %vfn.i.i = getelementptr inbounds i8, ptr %vtable.i.i, i64 8
  %1 = load ptr, ptr %vfn.i.i, align 8
  tail call void %1(ptr noundef nonnull align 8 dereferenceable(12) %0) #26
  br label %_ZNSt10unique_ptrIN4base5ValueESt14default_deleteIS1_EED2Ev.exit

_ZNSt10unique_ptrIN4base5ValueESt14default_deleteIS1_EED2Ev.exit: ; preds = %invoke.cont, %_ZNKSt14default_deleteIN4base5ValueEEclEPS1_.exit.i
  ret i1 %call

lpad:                                             ; preds = %entry
  %2 = landingpad { ptr, i32 }
          cleanup
  %3 = load ptr, ptr %agg.tmp, align 8
  %cmp.not.i1 = icmp eq ptr %3, null
  br i1 %cmp.not.i1, label %_ZNSt10unique_ptrIN4base5ValueESt14default_deleteIS1_EED2Ev.exit5, label %_ZNKSt14default_deleteIN4base5ValueEEclEPS1_.exit.i2

_ZNKSt14default_deleteIN4base5ValueEEclEPS1_.exit.i2: ; preds = %lpad
  %vtable.i.i3 = load ptr, ptr %3, align 8
  %vfn.i.i4 = getelementptr inbounds i8, ptr %vtable.i.i3, i64 8
  %4 = load ptr, ptr %vfn.i.i4, align 8
  tail call void %4(ptr noundef nonnull align 8 dereferenceable(12) %3) #26
  br label %_ZNSt10unique_ptrIN4base5ValueESt14default_deleteIS1_EED2Ev.exit5

_ZNSt10unique_ptrIN4base5ValueESt14default_deleteIS1_EED2Ev.exit5: ; preds = %lpad, %_ZNKSt14default_deleteIN4base5ValueEEclEPS1_.exit.i2
  resume { ptr, i32 } %2
}